; Function Attrs: mustprogress null_pointer_is_valid sspstrong uwtable
define void @_ZN9ProtoTree18updateContentWidthEv(ptr noundef align 8 dereferenceable_or_null(208) %0) #0 align 2 {
  %2 = getelementptr inbounds nuw i8, ptr %0, i64 152
  %3 = load i32, ptr %2, align 8
  %4 = icmp eq i32 %3, 0
  br i1 %4, label %5, label %7

5:                                                ; preds = %1
  %6 = tail call noundef i32 @_ZN7QObject10startTimerEiN2Qt9TimerTypeE(ptr noundef align 8 dereferenceable_or_null(16) %0, i32 noundef 0, i32 noundef 1)
  store i32 %6, ptr %2, align 8
  br label %7

7:                                                ; preds = %5, %1
  ret void
}